target datalayout = "e-m:e-p270:32:32-p271:32:32-p272:64:64-i64:64-i128:128-f80:128-n8:16:32:64-S128"
target triple = "x86_64-pc-linux-gnu"

; Function Attrs: mustprogress nounwind uwtable
define noundef double @_Z12v_q_ewald_lrdd(double noundef %0, double noundef %1) #0 {
  %3 = alloca double, align 8
  %4 = alloca double, align 8
  %5 = alloca double, align 8
  store double %0, ptr %4, align 8
  store double %1, ptr %5, align 8
  %6 = load double, ptr %5, align 8
  %7 = fcmp oeq double %6, 0.000000e+00
  br i1 %7, label %8, label %13

8:                                                ; preds = %2
  %9 = load double, ptr %4, align 8
  %10 = fmul double %9, 2.000000e+00
  %11 = call double @sqrt(double noundef 0x400921FB54442D18) #13
  %12 = fdiv double %10, %11
  store double %12, ptr %3, align 8
  br label %20

13:                                               ; preds = %2
  %14 = load double, ptr %4, align 8
  %15 = load double, ptr %5, align 8
  %16 = fmul double %14, %15
  %17 = call double @erf(double noundef %16) #13
  %18 = load double, ptr %5, align 8
  %19 = fdiv double %17, %18
  store double %19, ptr %3, align 8
  br label %20

20:                                               ; preds = %13, %8
  %21 = load double, ptr %3, align 8
  ret double %21
}