; Function Attrs: mustprogress nofree nounwind willreturn memory(write) uwtable
define noundef double @_Z12v_q_ewald_lrdd(double noundef %0, double noundef %1) local_unnamed_addr #0 {
  %3 = fcmp oeq double %1, 0.000000e+00
  br i1 %3, label %4, label %7

4:                                                ; preds = %2
  %5 = fmul double %0, 2.000000e+00
  %6 = fdiv double %5, 0x3FFC5BF891B4EF6A
  br label %11

7:                                                ; preds = %2
  %8 = fmul double %0, %1
  %9 = tail call double @erf(double noundef %8) #22
  %10 = fdiv double %9, %1
  br label %11

11:                                               ; preds = %7, %4
  %.0 = phi double [ %6, %4 ], [ %10, %7 ]
  ret double %.0
}